; Function Attrs: mustprogress uwtable
define void @_ZNK6google8protobuf10TextFormat21FastFieldValuePrinter11PrintDoubleEdPNS1_17BaseTextGeneratorE(ptr nocapture nonnull readnone align 8 %this, double noundef %val, ptr noundef %generator) unnamed_addr #4 align 2 personality ptr @__gxx_personality_v0 {
entry:
  %ref.tmp = alloca %"class.std::__cxx11::basic_string", align 8
  %ref.tmp2 = alloca %"class.std::allocator", align 1
  %0 = fcmp uno double %val, 0.000000e+00
  br i1 %0, label %cond.false, label %cond.true

cond.true:                                        ; preds = %entry
  call void @_ZN6google8protobuf2io10SimpleDtoaB5cxx11Ed(ptr nonnull sret(%"class.std::__cxx11::basic_string") align 8 %ref.tmp, double noundef %val)
  br label %cond.end

cond.false:                                       ; preds = %entry
  call void @_ZNSaIcEC1Ev(ptr noundef nonnull align 1 dereferenceable(1) %ref.tmp2) #34
  %call.i3 = invoke noundef ptr @_ZNSt7__cxx1112basic_stringIcSt11char_traitsIcESaIcEE13_M_local_dataEv(ptr noundef nonnull align 8 dereferenceable(32) %ref.tmp)
          to label %call.i.noexc unwind label %lpad

call.i.noexc:                                     ; preds = %cond.false
  invoke void @_ZNSt7__cxx1112basic_stringIcSt11char_traitsIcESaIcEE12_Alloc_hiderC1EPcRKS3_(ptr noundef nonnull align 8 dereferenceable(8) %ref.tmp, ptr noundef %call.i3, ptr noundef nonnull align 1 dereferenceable(1) %ref.tmp2)
          to label %.noexc unwind label %lpad

.noexc:                                           ; preds = %call.i.noexc
  invoke void @_ZNSt7__cxx1112basic_stringIcSt11char_traitsIcESaIcEE12_M_constructIPKcEEvT_S8_St20forward_iterator_tag(ptr noundef nonnull align 8 dereferenceable(32) %ref.tmp, ptr noundef nonnull @.str.5, ptr noundef nonnull getelementptr inbounds ([4 x i8], ptr @.str.5, i64 0, i64 3))
          to label %cond.end unwind label %lpad.i

lpad.i:                                           ; preds = %.noexc
  %1 = landingpad { ptr, i32 }
          cleanup
  call void @_ZNSaIcED2Ev(ptr noundef nonnull align 1 dereferenceable(1) %ref.tmp) #34
  br label %cleanup.action7

cond.end:                                         ; preds = %.noexc, %cond.true
  %call3 = call { i64, ptr } @_ZNKSt7__cxx1112basic_stringIcSt11char_traitsIcESaIcEEcvSt17basic_string_viewIcS2_EEv(ptr noundef nonnull align 8 dereferenceable(32) %ref.tmp) #34
  %2 = extractvalue { i64, ptr } %call3, 0
  %3 = extractvalue { i64, ptr } %call3, 1
  %vtable.i = load ptr, ptr %generator, align 8
  %vfn.i = getelementptr inbounds i8, ptr %vtable.i, i64 40
  %4 = load ptr, ptr %vfn.i, align 8
  invoke void %4(ptr noundef nonnull align 8 dereferenceable(8) %generator, ptr noundef %3, i64 noundef %2)
          to label %invoke.cont5 unwind label %ehcleanup

invoke.cont5:                                     ; preds = %cond.end
  call void @_ZNSt7__cxx1112basic_stringIcSt11char_traitsIcESaIcEED1Ev(ptr noundef nonnull align 8 dereferenceable(32) %ref.tmp) #34
  br i1 %0, label %cleanup.action, label %cleanup.done

cleanup.action:                                   ; preds = %invoke.cont5
  call void @_ZNSaIcED1Ev(ptr noundef nonnull align 1 dereferenceable(1) %ref.tmp2) #34
  br label %cleanup.done

cleanup.done:                                     ; preds = %cleanup.action, %invoke.cont5
  ret void

lpad:                                             ; preds = %call.i.noexc, %cond.false
  %5 = landingpad { ptr, i32 }
          cleanup
  br label %cleanup.action7

ehcleanup:                                        ; preds = %cond.end
  %6 = landingpad { ptr, i32 }
          cleanup
  call void @_ZNSt7__cxx1112basic_stringIcSt11char_traitsIcESaIcEED1Ev(ptr noundef nonnull align 8 dereferenceable(32) %ref.tmp) #34
  br i1 %0, label %cleanup.action7, label %eh.resume

cleanup.action7:                                  ; preds = %lpad, %lpad.i, %ehcleanup
  %.pn8 = phi { ptr, i32 } [ %6, %ehcleanup ], [ %1, %lpad.i ], [ %5, %lpad ]
  call void @_ZNSaIcED1Ev(ptr noundef nonnull align 1 dereferenceable(1) %ref.tmp2) #34
  br label %eh.resume

eh.resume:                                        ; preds = %ehcleanup, %cleanup.action7
  %.pn7 = phi { ptr, i32 } [ %6, %ehcleanup ], [ %.pn8, %cleanup.action7 ]
  resume { ptr, i32 } %.pn7
}